target datalayout = "e-m:e-p270:32:32-p271:32:32-p272:64:64-i64:64-i128:128-f80:128-n8:16:32:64-S128"
target triple = "x86_64-pc-linux-gnu"

%struct.DdManager = type { %struct.DdNode, ptr, ptr, ptr, ptr, ptr, ptr, ptr, i32, i32, double, double, double, i32, i32, i32, i32, i32, i32, ptr, ptr, %struct.DdSubtable, i32, i32, i32, i32, i32, i32, i32, double, i32, i32, i32, ptr, i64, double, i32, ptr, ptr, ptr, ptr, ptr, ptr, ptr, i32, ptr, ptr, ptr, ptr, ptr, ptr, i32, i32, i32, double, i32, i32, i32, i32, double, double, i32, i32, i32, i32, i32, i32, i32, i32, i32, ptr, ptr, i32, i32, i32, i32, i32, i32, ptr, ptr, ptr, ptr, ptr, ptr, ptr, ptr, i32, i64, i64, i64, i32, i64, i64, double, double, double, double, double, double, i32, ptr, ptr, i64 }
%struct.DdNode = type { i32, i32, ptr, %union.anon, i64 }
%union.anon = type { %struct.DdChildren }
%struct.DdChildren = type { ptr, ptr }
%struct.DdSubtable = type { ptr, i32, i32, i32, i32, i32, i32, i32, i32, i32, i32, i32 }

; Function Attrs: nounwind uwtable
define ptr @Cudd_addPlus(ptr noundef %0, ptr noundef %1, ptr noundef %2) #0 {
  %4 = alloca ptr, align 8
  %5 = alloca ptr, align 8
  %6 = alloca ptr, align 8
  %7 = alloca ptr, align 8
  %8 = alloca ptr, align 8
  %9 = alloca ptr, align 8
  %10 = alloca ptr, align 8
  %11 = alloca double, align 8
  %12 = alloca i32, align 4
  store ptr %0, ptr %5, align 8, !tbaa !3
  store ptr %1, ptr %6, align 8, !tbaa !35
  store ptr %2, ptr %7, align 8, !tbaa !35
  call void @llvm.lifetime.start.p0(i64 8, ptr %8) #4
  call void @llvm.lifetime.start.p0(i64 8, ptr %9) #4
  call void @llvm.lifetime.start.p0(i64 8, ptr %10) #4
  call void @llvm.lifetime.start.p0(i64 8, ptr %11) #4
  %13 = load ptr, ptr %6, align 8, !tbaa !35
  %14 = load ptr, ptr %13, align 8, !tbaa !9
  store ptr %14, ptr %9, align 8, !tbaa !9
  %15 = load ptr, ptr %7, align 8, !tbaa !35
  %16 = load ptr, ptr %15, align 8, !tbaa !9
  store ptr %16, ptr %10, align 8, !tbaa !9
  %17 = load ptr, ptr %9, align 8, !tbaa !9
  %18 = load ptr, ptr %5, align 8, !tbaa !3
  %19 = getelementptr inbounds nuw %struct.DdManager, ptr %18, i32 0, i32 2
  %20 = load ptr, ptr %19, align 8, !tbaa !36
  %21 = icmp eq ptr %17, %20
  br i1 %21, label %22, label %24

22:                                               ; preds = %3
  %23 = load ptr, ptr %10, align 8, !tbaa !9
  store ptr %23, ptr %4, align 8
  store i32 1, ptr %12, align 4
  br label %64

24:                                               ; preds = %3
  %25 = load ptr, ptr %10, align 8, !tbaa !9
  %26 = load ptr, ptr %5, align 8, !tbaa !3
  %27 = getelementptr inbounds nuw %struct.DdManager, ptr %26, i32 0, i32 2
  %28 = load ptr, ptr %27, align 8, !tbaa !36
  %29 = icmp eq ptr %25, %28
  br i1 %29, label %30, label %32

30:                                               ; preds = %24
  %31 = load ptr, ptr %9, align 8, !tbaa !9
  store ptr %31, ptr %4, align 8
  store i32 1, ptr %12, align 4
  br label %64

32:                                               ; preds = %24
  %33 = load ptr, ptr %9, align 8, !tbaa !9
  %34 = getelementptr inbounds nuw %struct.DdNode, ptr %33, i32 0, i32 0
  %35 = load i32, ptr %34, align 8, !tbaa !30
  %36 = icmp eq i32 %35, 2147483647
  br i1 %36, label %37, label %54

37:                                               ; preds = %32
  %38 = load ptr, ptr %10, align 8, !tbaa !9
  %39 = getelementptr inbounds nuw %struct.DdNode, ptr %38, i32 0, i32 0
  %40 = load i32, ptr %39, align 8, !tbaa !30
  %41 = icmp eq i32 %40, 2147483647
  br i1 %41, label %42, label %54

42:                                               ; preds = %37
  %43 = load ptr, ptr %9, align 8, !tbaa !9
  %44 = getelementptr inbounds nuw %struct.DdNode, ptr %43, i32 0, i32 3
  %45 = load double, ptr %44, align 8, !tbaa !33
  %46 = load ptr, ptr %10, align 8, !tbaa !9
  %47 = getelementptr inbounds nuw %struct.DdNode, ptr %46, i32 0, i32 3
  %48 = load double, ptr %47, align 8, !tbaa !33
  %49 = fadd double %45, %48
  store double %49, ptr %11, align 8, !tbaa !37
  %50 = load ptr, ptr %5, align 8, !tbaa !3
  %51 = load double, ptr %11, align 8, !tbaa !37
  %52 = call ptr @cuddUniqueConst(ptr noundef %50, double noundef %51)
  store ptr %52, ptr %8, align 8, !tbaa !9
  %53 = load ptr, ptr %8, align 8, !tbaa !9
  store ptr %53, ptr %4, align 8
  store i32 1, ptr %12, align 4
  br label %64

54:                                               ; preds = %37, %32
  %55 = load ptr, ptr %9, align 8, !tbaa !9
  %56 = load ptr, ptr %10, align 8, !tbaa !9
  %57 = icmp ugt ptr %55, %56
  br i1 %57, label %58, label %63

58:                                               ; preds = %54
  %59 = load ptr, ptr %10, align 8, !tbaa !9
  %60 = load ptr, ptr %6, align 8, !tbaa !35
  store ptr %59, ptr %60, align 8, !tbaa !9
  %61 = load ptr, ptr %9, align 8, !tbaa !9
  %62 = load ptr, ptr %7, align 8, !tbaa !35
  store ptr %61, ptr %62, align 8, !tbaa !9
  br label %63

63:                                               ; preds = %58, %54
  store ptr null, ptr %4, align 8
  store i32 1, ptr %12, align 4
  br label %64

64:                                               ; preds = %63, %42, %30, %22
  call void @llvm.lifetime.end.p0(i64 8, ptr %11) #4
  call void @llvm.lifetime.end.p0(i64 8, ptr %10) #4
  call void @llvm.lifetime.end.p0(i64 8, ptr %9) #4
  call void @llvm.lifetime.end.p0(i64 8, ptr %8) #4
  %65 = load ptr, ptr %4, align 8
  ret ptr %65
}