; Function Attrs: nounwind uwtable
define ptr @Cudd_addPlus(ptr noundef %0, ptr noundef captures(none) %1, ptr noundef captures(none) %2) local_unnamed_addr #0 {
  %4 = load ptr, ptr %1, align 8, !tbaa !26
  %5 = load ptr, ptr %2, align 8, !tbaa !26
  %6 = getelementptr inbounds nuw i8, ptr %0, i64 48
  %7 = load ptr, ptr %6, align 8, !tbaa !32
  %8 = icmp eq ptr %4, %7
  br i1 %8, label %27, label %9

9:                                                ; preds = %3
  %10 = icmp eq ptr %5, %7
  br i1 %10, label %27, label %11

11:                                               ; preds = %9
  %12 = load i32, ptr %4, align 8, !tbaa !27
  %13 = icmp eq i32 %12, 2147483647
  br i1 %13, label %14, label %24

14:                                               ; preds = %11
  %15 = load i32, ptr %5, align 8, !tbaa !27
  %16 = icmp eq i32 %15, 2147483647
  br i1 %16, label %17, label %24

17:                                               ; preds = %14
  %18 = getelementptr inbounds nuw i8, ptr %4, i64 16
  %19 = load double, ptr %18, align 8, !tbaa !30
  %20 = getelementptr inbounds nuw i8, ptr %5, i64 16
  %21 = load double, ptr %20, align 8, !tbaa !30
  %22 = fadd double %19, %21
  %23 = tail call ptr @cuddUniqueConst(ptr noundef nonnull %0, double noundef %22) #5
  br label %27

24:                                               ; preds = %14, %11
  %25 = icmp ugt ptr %4, %5
  br i1 %25, label %26, label %27

26:                                               ; preds = %24
  store ptr %5, ptr %1, align 8, !tbaa !26
  store ptr %4, ptr %2, align 8, !tbaa !26
  br label %27

27:                                               ; preds = %24, %26, %9, %3, %17
  %.0 = phi ptr [ %23, %17 ], [ %5, %3 ], [ %4, %9 ], [ null, %26 ], [ null, %24 ]
  ret ptr %.0
}